; Function Attrs: mustprogress nounwind uwtable
define dso_local void @_ZN13SubprocessSet5ClearEv(ptr noundef nonnull align 8 captures(none) dereferenceable(688) %0) local_unnamed_addr #1 align 2 personality ptr @__gxx_personality_v0 {
  %2 = load ptr, ptr %0, align 8, !tbaa !39
  %3 = getelementptr inbounds nuw i8, ptr %0, i64 8
  %4 = load ptr, ptr %3, align 8, !tbaa !39
  %.not11 = icmp eq ptr %2, %4
  br i1 %.not11, label %_ZNSt6vectorIP10SubprocessSaIS1_EE5clearEv.exit, label %.lr.ph

._crit_edge:                                      ; preds = %16
  %.pre19 = load ptr, ptr %0, align 8, !tbaa !39
  %.not913 = icmp eq ptr %.pre19, %17
  br i1 %.not913, label %._crit_edge17, label %.lr.ph16

.lr.ph:                                           ; preds = %1, %16
  %5 = phi ptr [ %17, %16 ], [ %4, %1 ]
  %.sroa.05.012 = phi ptr [ %18, %16 ], [ %2, %1 ]
  %6 = load ptr, ptr %.sroa.05.012, align 8, !tbaa !43
  %7 = getelementptr inbounds nuw i8, ptr %6, i64 40
  %8 = load i8, ptr %7, align 8, !tbaa !19, !range !22, !noundef !23
  %9 = trunc nuw i8 %8 to i1
  br i1 %9, label %16, label %10

10:                                               ; preds = %.lr.ph
  %11 = getelementptr inbounds nuw i8, ptr %6, i64 36
  %12 = load i32, ptr %11, align 4, !tbaa !18
  %13 = sub nsw i32 0, %12
  %14 = load i32, ptr @_ZN13SubprocessSet12interrupted_E, align 4, !tbaa !20
  %15 = tail call i32 @kill(i32 noundef %13, i32 noundef %14) #22
  %.pre = load ptr, ptr %3, align 8, !tbaa !39
  br label %16

16:                                               ; preds = %.lr.ph, %10
  %17 = phi ptr [ %5, %.lr.ph ], [ %.pre, %10 ]
  %18 = getelementptr inbounds nuw i8, ptr %.sroa.05.012, i64 8
  %.not = icmp eq ptr %18, %17
  br i1 %.not, label %._crit_edge, label %.lr.ph, !llvm.loop !45

._crit_edge17.loopexit:                           ; preds = %25
  %.pre21 = load ptr, ptr %0, align 8, !tbaa !28
  br label %._crit_edge17

._crit_edge17:                                    ; preds = %._crit_edge17.loopexit, %._crit_edge
  %19 = phi ptr [ %.pre19, %._crit_edge ], [ %.pre21, %._crit_edge17.loopexit ]
  %.lcssa = phi ptr [ %17, %._crit_edge ], [ %26, %._crit_edge17.loopexit ]
  %.not.i.i = icmp eq ptr %.lcssa, %19
  br i1 %.not.i.i, label %_ZNSt6vectorIP10SubprocessSaIS1_EE5clearEv.exit, label %20

20:                                               ; preds = %._crit_edge17
  store ptr %19, ptr %3, align 8, !tbaa !46
  br label %_ZNSt6vectorIP10SubprocessSaIS1_EE5clearEv.exit

_ZNSt6vectorIP10SubprocessSaIS1_EE5clearEv.exit:  ; preds = %1, %._crit_edge17, %20
  ret void

.lr.ph16:                                         ; preds = %._crit_edge, %25
  %21 = phi ptr [ %26, %25 ], [ %17, %._crit_edge ]
  %.sroa.01.014 = phi ptr [ %27, %25 ], [ %.pre19, %._crit_edge ]
  %22 = load ptr, ptr %.sroa.01.014, align 8, !tbaa !43
  %23 = icmp eq ptr %22, null
  br i1 %23, label %25, label %24

24:                                               ; preds = %.lr.ph16
  tail call void @_ZN10SubprocessD2Ev(ptr noundef nonnull align 8 dereferenceable(41) %22) #22
  tail call void @_ZdlPvm(ptr noundef nonnull %22, i64 noundef 48) #25
  %.pre20 = load ptr, ptr %3, align 8, !tbaa !39
  br label %25

25:                                               ; preds = %.lr.ph16, %24
  %26 = phi ptr [ %21, %.lr.ph16 ], [ %.pre20, %24 ]
  %27 = getelementptr inbounds nuw i8, ptr %.sroa.01.014, i64 8
  %.not9 = icmp eq ptr %27, %26
  br i1 %.not9, label %._crit_edge17.loopexit, label %.lr.ph16, !llvm.loop !47
}